; Function Attrs: mustprogress uwtable
define internal noundef zeroext i1 @"_ZNSt17_Function_handlerIFbPKN8facebook5velox4core8PlanNodeEEZNKS2_12PlanFragment8canSpillERKNS2_11QueryConfigEE3$_0E9_M_invokeERKSt9_Any_dataOS5_"(ptr nocapture noundef nonnull readonly align 8 dereferenceable(16) %__functor, ptr nocapture noundef nonnull readonly align 8 dereferenceable(8) %__args) #0 align 2 {
entry:
  %call.val = load ptr, ptr %__functor, align 8
  %__args.val = load ptr, ptr %__args, align 8
  %vtable.i.i.i = load ptr, ptr %__args.val, align 8
  %vfn.i.i.i = getelementptr inbounds i8, ptr %vtable.i.i.i, i64 56
  %0 = load ptr, ptr %vfn.i.i.i, align 8
  %call.i.i.i = tail call noundef zeroext i1 %0(ptr noundef nonnull align 8 dereferenceable(40) %__args.val, ptr noundef nonnull align 8 dereferenceable(8) %call.val)
  ret i1 %call.i.i.i
}